; Function Attrs: mustprogress null_pointer_is_valid sspstrong uwtable
define noundef ptr @_ZN10TrafficTab16modelForTabIndexEi(ptr noundef align 8 dereferenceable_or_null(130) %0, i32 noundef %1) local_unnamed_addr #3 align 2 {
  %3 = icmp eq i32 %1, -1
  br i1 %3, label %4, label %6

4:                                                ; preds = %2
  %5 = tail call noundef i32 @_ZNK10QTabWidget12currentIndexEv(ptr noundef align 8 dereferenceable_or_null(40) %0)
  br label %6

6:                                                ; preds = %4, %2
  %.0 = phi i32 [ %5, %4 ], [ %1, %2 ]
  %7 = tail call noundef ptr @_ZNK10QTabWidget6widgetEi(ptr noundef align 8 dereferenceable_or_null(40) %0, i32 noundef %.0)
  %8 = tail call noundef ptr @_ZNK11QMetaObject4castEPK7QObject(ptr noundef nonnull align 8 dereferenceable_or_null(56) @_ZN9QTreeView16staticMetaObjectE, ptr noundef %7)
  %.not.i = icmp eq ptr %8, null
  br i1 %.not.i, label %_ZN10TrafficTab14modelForWidgetEP7QWidget.exit, label %9

9:                                                ; preds = %6
  %10 = tail call noundef ptr @_ZNK11QMetaObject4castEPK7QObject(ptr noundef nonnull align 8 dereferenceable_or_null(56) @_ZN9QTreeView16staticMetaObjectE, ptr noundef %7)
  %11 = tail call noundef ptr @_ZNK17QAbstractItemView5modelEv(ptr noundef align 8 dereferenceable_or_null(40) %10)
  %12 = tail call noundef ptr @_ZNK11QMetaObject4castEPK7QObject(ptr noundef nonnull align 8 dereferenceable_or_null(56) @_ZN22TrafficDataFilterProxy16staticMetaObjectE, ptr noundef %11)
  %.not6.not.i = icmp eq ptr %12, null
  br i1 %.not6.not.i, label %_ZN10TrafficTab14modelForWidgetEP7QWidget.exit, label %13

13:                                               ; preds = %9
  %14 = tail call noundef ptr @_ZNK17QAbstractItemView5modelEv(ptr noundef align 8 dereferenceable_or_null(40) %10)
  %15 = tail call noundef ptr @_ZNK11QMetaObject4castEPK7QObject(ptr noundef nonnull align 8 dereferenceable_or_null(56) @_ZN22TrafficDataFilterProxy16staticMetaObjectE, ptr noundef %14)
  br label %_ZN10TrafficTab14modelForWidgetEP7QWidget.exit

_ZN10TrafficTab14modelForWidgetEP7QWidget.exit:   ; preds = %6, %9, %13
  %.1.i = phi ptr [ %15, %13 ], [ null, %6 ], [ null, %9 ]
  ret ptr %.1.i
}